target datalayout = "e-m:e-p270:32:32-p271:32:32-p272:64:64-i64:64-i128:128-f80:128-n8:16:32:64-S128"
target triple = "x86_64-pc-linux-gnu"

%struct.expert_field = type { i32, i32 }
%struct.ext_value_string_t = type { i32, ptr, i32 }

@ansi_a_elem_1_strings = global ptr null, align 8
@.str.282 = private unnamed_addr constant [1 x i8] zeroinitializer, align 1
@ei_ansi_a_extraneous_data = internal global %struct.expert_field zeroinitializer, align 4
@ei_ansi_a_missing_mand_elem = internal global %struct.expert_field zeroinitializer, align 4
@.str.1753 = private unnamed_addr constant [71 x i8] c"Missing Mandatory element (0x%02x) %s%s, rest of dissection is suspect\00", align 1

; Function Attrs: null_pointer_is_valid sspstrong uwtable
define internal void @bsmap_user_zone_reject(ptr noundef %0, ptr noundef %1, ptr noundef %2, i32 noundef %3, i32 noundef %4, ptr noundef %5) #1 {
  %7 = alloca ptr, align 8
  %8 = alloca ptr, align 8
  %9 = alloca ptr, align 8
  %10 = alloca i32, align 4
  %11 = alloca i32, align 4
  %12 = alloca ptr, align 8
  %13 = alloca i32, align 4
  %14 = alloca i32, align 4
  %15 = alloca i32, align 4
  %16 = alloca i32, align 4
  store ptr %0, ptr %7, align 8
  store ptr %1, ptr %8, align 8
  store ptr %2, ptr %9, align 8
  store i32 %3, ptr %10, align 4
  store i32 %4, ptr %11, align 4
  store ptr %5, ptr %12, align 8
  call void @llvm.lifetime.start.p0(i64 4, ptr %13) #8
  call void @llvm.lifetime.start.p0(i64 4, ptr %14) #8
  call void @llvm.lifetime.start.p0(i64 4, ptr %15) #8
  %17 = load i32, ptr %10, align 4
  store i32 %17, ptr %13, align 4
  %18 = load i32, ptr %11, align 4
  store i32 %18, ptr %15, align 4
  %19 = load ptr, ptr %7, align 8
  %20 = load ptr, ptr %8, align 8
  %21 = load ptr, ptr %9, align 8
  %22 = load i32, ptr %13, align 4
  %23 = load i32, ptr %15, align 4
  %24 = load ptr, ptr %12, align 8
  %25 = call zeroext i16 @elem_tlv(ptr noundef %19, ptr noundef %20, ptr noundef %21, i32 noundef 81, i32 noundef %22, i32 noundef %23, ptr noundef @.str.282, ptr noundef %24)
  %26 = zext i16 %25 to i32
  store i32 %26, ptr %14, align 4
  %27 = icmp ugt i32 %26, 0
  br i1 %27, label %28, label %35

28:                                               ; preds = %6
  %29 = load i32, ptr %14, align 4
  %30 = load i32, ptr %13, align 4
  %31 = add i32 %30, %29
  store i32 %31, ptr %13, align 4
  %32 = load i32, ptr %14, align 4
  %33 = load i32, ptr %15, align 4
  %34 = sub i32 %33, %32
  store i32 %34, ptr %15, align 4
  br label %35

35:                                               ; preds = %28, %6
  %36 = load i32, ptr %15, align 4
  %37 = icmp ule i32 %36, 0
  br i1 %37, label %38, label %39

38:                                               ; preds = %35
  store i32 1, ptr %16, align 4
  br label %215

39:                                               ; preds = %35
  %40 = load ptr, ptr %7, align 8
  %41 = load ptr, ptr %8, align 8
  %42 = load ptr, ptr %9, align 8
  %43 = load i32, ptr %13, align 4
  %44 = load i32, ptr %15, align 4
  %45 = load ptr, ptr %12, align 8
  %46 = call zeroext i16 @elem_tlv(ptr noundef %40, ptr noundef %41, ptr noundef %42, i32 noundef 47, i32 noundef %43, i32 noundef %44, ptr noundef @.str.282, ptr noundef %45)
  %47 = zext i16 %46 to i32
  store i32 %47, ptr %14, align 4
  %48 = icmp ugt i32 %47, 0
  br i1 %48, label %49, label %56

49:                                               ; preds = %39
  %50 = load i32, ptr %14, align 4
  %51 = load i32, ptr %13, align 4
  %52 = add i32 %51, %50
  store i32 %52, ptr %13, align 4
  %53 = load i32, ptr %14, align 4
  %54 = load i32, ptr %15, align 4
  %55 = sub i32 %54, %53
  store i32 %55, ptr %15, align 4
  br label %70

56:                                               ; preds = %39
  %57 = load ptr, ptr %9, align 8
  %58 = load ptr, ptr %8, align 8
  %59 = load ptr, ptr %7, align 8
  %60 = load i32, ptr %13, align 4
  %61 = load ptr, ptr @ansi_a_elem_1_strings, align 8
  %62 = getelementptr %struct.ext_value_string_t, ptr %61, i64 47
  %63 = getelementptr inbounds nuw %struct.ext_value_string_t, ptr %62, i32 0, i32 0
  %64 = load i32, ptr %63, align 8
  %65 = load ptr, ptr @ansi_a_elem_1_strings, align 8
  %66 = getelementptr %struct.ext_value_string_t, ptr %65, i64 47
  %67 = getelementptr inbounds nuw %struct.ext_value_string_t, ptr %66, i32 0, i32 1
  %68 = load ptr, ptr %67, align 8
  %69 = call ptr (ptr, ptr, ptr, ptr, i32, i32, ptr, ...) @proto_tree_add_expert_format(ptr noundef %57, ptr noundef %58, ptr noundef @ei_ansi_a_missing_mand_elem, ptr noundef %59, i32 noundef %60, i32 noundef 0, ptr noundef @.str.1753, i32 noundef %64, ptr noundef %68, ptr noundef @.str.282)
  br label %70

70:                                               ; preds = %56, %49
  %71 = load i32, ptr %15, align 4
  %72 = icmp ule i32 %71, 0
  br i1 %72, label %73, label %74

73:                                               ; preds = %70
  store i32 1, ptr %16, align 4
  br label %215

74:                                               ; preds = %70
  %75 = load ptr, ptr %7, align 8
  %76 = load ptr, ptr %8, align 8
  %77 = load ptr, ptr %9, align 8
  %78 = load i32, ptr %13, align 4
  %79 = load i32, ptr %15, align 4
  %80 = load ptr, ptr %12, align 8
  %81 = call zeroext i16 @elem_tlv(ptr noundef %75, ptr noundef %76, ptr noundef %77, i32 noundef 19, i32 noundef %78, i32 noundef %79, ptr noundef @.str.282, ptr noundef %80)
  %82 = zext i16 %81 to i32
  store i32 %82, ptr %14, align 4
  %83 = icmp ugt i32 %82, 0
  br i1 %83, label %84, label %91

84:                                               ; preds = %74
  %85 = load i32, ptr %14, align 4
  %86 = load i32, ptr %13, align 4
  %87 = add i32 %86, %85
  store i32 %87, ptr %13, align 4
  %88 = load i32, ptr %14, align 4
  %89 = load i32, ptr %15, align 4
  %90 = sub i32 %89, %88
  store i32 %90, ptr %15, align 4
  br label %91

91:                                               ; preds = %84, %74
  %92 = load i32, ptr %15, align 4
  %93 = icmp ule i32 %92, 0
  br i1 %93, label %94, label %95

94:                                               ; preds = %91
  store i32 1, ptr %16, align 4
  br label %215

95:                                               ; preds = %91
  %96 = load ptr, ptr %7, align 8
  %97 = load ptr, ptr %8, align 8
  %98 = load ptr, ptr %9, align 8
  %99 = load i32, ptr %13, align 4
  %100 = load ptr, ptr %12, align 8
  %101 = call zeroext i16 @elem_tv(ptr noundef %96, ptr noundef %97, ptr noundef %98, i32 noundef 74, i32 noundef %99, ptr noundef @.str.282, ptr noundef %100)
  %102 = zext i16 %101 to i32
  store i32 %102, ptr %14, align 4
  %103 = icmp ugt i32 %102, 0
  br i1 %103, label %104, label %111

104:                                              ; preds = %95
  %105 = load i32, ptr %14, align 4
  %106 = load i32, ptr %13, align 4
  %107 = add i32 %106, %105
  store i32 %107, ptr %13, align 4
  %108 = load i32, ptr %14, align 4
  %109 = load i32, ptr %15, align 4
  %110 = sub i32 %109, %108
  store i32 %110, ptr %15, align 4
  br label %111

111:                                              ; preds = %104, %95
  %112 = load i32, ptr %15, align 4
  %113 = icmp ule i32 %112, 0
  br i1 %113, label %114, label %115

114:                                              ; preds = %111
  store i32 1, ptr %16, align 4
  br label %215

115:                                              ; preds = %111
  %116 = load ptr, ptr %7, align 8
  %117 = load ptr, ptr %8, align 8
  %118 = load ptr, ptr %9, align 8
  %119 = load i32, ptr %13, align 4
  %120 = load i32, ptr %15, align 4
  %121 = load ptr, ptr %12, align 8
  %122 = call zeroext i16 @elem_tlv(ptr noundef %116, ptr noundef %117, ptr noundef %118, i32 noundef 37, i32 noundef %119, i32 noundef %120, ptr noundef @.str.282, ptr noundef %121)
  %123 = zext i16 %122 to i32
  store i32 %123, ptr %14, align 4
  %124 = icmp ugt i32 %123, 0
  br i1 %124, label %125, label %132

125:                                              ; preds = %115
  %126 = load i32, ptr %14, align 4
  %127 = load i32, ptr %13, align 4
  %128 = add i32 %127, %126
  store i32 %128, ptr %13, align 4
  %129 = load i32, ptr %14, align 4
  %130 = load i32, ptr %15, align 4
  %131 = sub i32 %130, %129
  store i32 %131, ptr %15, align 4
  br label %132

132:                                              ; preds = %125, %115
  %133 = load i32, ptr %15, align 4
  %134 = icmp ule i32 %133, 0
  br i1 %134, label %135, label %136

135:                                              ; preds = %132
  store i32 1, ptr %16, align 4
  br label %215

136:                                              ; preds = %132
  %137 = load ptr, ptr %7, align 8
  %138 = load ptr, ptr %8, align 8
  %139 = load ptr, ptr %9, align 8
  %140 = load i32, ptr %13, align 4
  %141 = load i32, ptr %15, align 4
  %142 = load ptr, ptr %12, align 8
  %143 = call zeroext i16 @elem_tlv(ptr noundef %137, ptr noundef %138, ptr noundef %139, i32 noundef 57, i32 noundef %140, i32 noundef %141, ptr noundef @.str.282, ptr noundef %142)
  %144 = zext i16 %143 to i32
  store i32 %144, ptr %14, align 4
  %145 = icmp ugt i32 %144, 0
  br i1 %145, label %146, label %153

146:                                              ; preds = %136
  %147 = load i32, ptr %14, align 4
  %148 = load i32, ptr %13, align 4
  %149 = add i32 %148, %147
  store i32 %149, ptr %13, align 4
  %150 = load i32, ptr %14, align 4
  %151 = load i32, ptr %15, align 4
  %152 = sub i32 %151, %150
  store i32 %152, ptr %15, align 4
  br label %153

153:                                              ; preds = %146, %136
  %154 = load i32, ptr %15, align 4
  %155 = icmp ule i32 %154, 0
  br i1 %155, label %156, label %157

156:                                              ; preds = %153
  store i32 1, ptr %16, align 4
  br label %215

157:                                              ; preds = %153
  %158 = load ptr, ptr %7, align 8
  %159 = load ptr, ptr %8, align 8
  %160 = load ptr, ptr %9, align 8
  %161 = load i32, ptr %13, align 4
  %162 = load i32, ptr %15, align 4
  %163 = load ptr, ptr %12, align 8
  %164 = call zeroext i16 @elem_tlv(ptr noundef %158, ptr noundef %159, ptr noundef %160, i32 noundef 88, i32 noundef %161, i32 noundef %162, ptr noundef @.str.282, ptr noundef %163)
  %165 = zext i16 %164 to i32
  store i32 %165, ptr %14, align 4
  %166 = icmp ugt i32 %165, 0
  br i1 %166, label %167, label %174

167:                                              ; preds = %157
  %168 = load i32, ptr %14, align 4
  %169 = load i32, ptr %13, align 4
  %170 = add i32 %169, %168
  store i32 %170, ptr %13, align 4
  %171 = load i32, ptr %14, align 4
  %172 = load i32, ptr %15, align 4
  %173 = sub i32 %172, %171
  store i32 %173, ptr %15, align 4
  br label %174

174:                                              ; preds = %167, %157
  %175 = load i32, ptr %15, align 4
  %176 = icmp ule i32 %175, 0
  br i1 %176, label %177, label %178

177:                                              ; preds = %174
  store i32 1, ptr %16, align 4
  br label %215

178:                                              ; preds = %174
  %179 = load ptr, ptr %7, align 8
  %180 = load ptr, ptr %8, align 8
  %181 = load ptr, ptr %9, align 8
  %182 = load i32, ptr %13, align 4
  %183 = load i32, ptr %15, align 4
  %184 = load ptr, ptr %12, align 8
  %185 = call zeroext i16 @elem_tlv(ptr noundef %179, ptr noundef %180, ptr noundef %181, i32 noundef 89, i32 noundef %182, i32 noundef %183, ptr noundef @.str.282, ptr noundef %184)
  %186 = zext i16 %185 to i32
  store i32 %186, ptr %14, align 4
  %187 = icmp ugt i32 %186, 0
  br i1 %187, label %188, label %195

188:                                              ; preds = %178
  %189 = load i32, ptr %14, align 4
  %190 = load i32, ptr %13, align 4
  %191 = add i32 %190, %189
  store i32 %191, ptr %13, align 4
  %192 = load i32, ptr %14, align 4
  %193 = load i32, ptr %15, align 4
  %194 = sub i32 %193, %192
  store i32 %194, ptr %15, align 4
  br label %195

195:                                              ; preds = %188, %178
  %196 = load i32, ptr %15, align 4
  %197 = icmp ule i32 %196, 0
  br i1 %197, label %198, label %199

198:                                              ; preds = %195
  store i32 1, ptr %16, align 4
  br label %215

199:                                              ; preds = %195
  %200 = load i32, ptr %15, align 4
  %201 = icmp ugt i32 %200, 0
  br i1 %201, label %202, label %214

202:                                              ; preds = %199
  %203 = load ptr, ptr %9, align 8
  %204 = load ptr, ptr %8, align 8
  %205 = load ptr, ptr %7, align 8
  %206 = load i32, ptr %13, align 4
  %207 = load i32, ptr %15, align 4
  %208 = sub i32 %207, 0
  %209 = call ptr @proto_tree_add_expert(ptr noundef %203, ptr noundef %204, ptr noundef @ei_ansi_a_extraneous_data, ptr noundef %205, i32 noundef %206, i32 noundef %208)
  %210 = load i32, ptr %15, align 4
  %211 = sub i32 %210, 0
  %212 = load i32, ptr %13, align 4
  %213 = add i32 %212, %211
  store i32 %213, ptr %13, align 4
  br label %214

214:                                              ; preds = %202, %199
  store i32 0, ptr %16, align 4
  br label %215

215:                                              ; preds = %214, %198, %177, %156, %135, %114, %94, %73, %38
  call void @llvm.lifetime.end.p0(i64 4, ptr %15) #8
  call void @llvm.lifetime.end.p0(i64 4, ptr %14) #8
  call void @llvm.lifetime.end.p0(i64 4, ptr %13) #8
  %216 = load i32, ptr %16, align 4
  switch i32 %216, label %218 [
    i32 0, label %217
    i32 1, label %217
  ]

217:                                              ; preds = %215, %215
  ret void

218:                                              ; preds = %215
  unreachable
}