; Function Attrs: null_pointer_is_valid sspstrong uwtable
define internal void @bsmap_user_zone_reject(ptr noundef %0, ptr noundef %1, ptr noundef %2, i32 noundef %3, i32 noundef %4, ptr noundef %5) #1 {
  %7 = tail call fastcc zeroext i16 @elem_tlv(ptr noundef %0, ptr noundef %1, ptr noundef %2, i32 noundef 81, i32 noundef %3, ptr noundef nonnull @.str.282, ptr noundef %5)
  %8 = zext i16 %7 to i32
  %9 = add i32 %3, %8
  %10 = sub i32 %4, %8
  %11 = icmp eq i32 %10, 0
  br i1 %11, label %63, label %12

12:                                               ; preds = %6
  %13 = tail call fastcc zeroext i16 @elem_tlv(ptr noundef %0, ptr noundef %1, ptr noundef %2, i32 noundef 47, i32 noundef %9, ptr noundef nonnull @.str.282, ptr noundef %5)
  %.not116 = icmp eq i16 %13, 0
  br i1 %.not116, label %.thread, label %20

.thread:                                          ; preds = %12
  %14 = load ptr, ptr @ansi_a_elem_1_strings, align 8
  %15 = getelementptr i8, ptr %14, i64 1128
  %16 = load i32, ptr %15, align 8
  %17 = getelementptr i8, ptr %14, i64 1136
  %18 = load ptr, ptr %17, align 8
  %19 = tail call ptr (ptr, ptr, ptr, ptr, i32, i32, ptr, ...) @proto_tree_add_expert_format(ptr noundef %2, ptr noundef %1, ptr noundef nonnull @ei_ansi_a_missing_mand_elem, ptr noundef %0, i32 noundef %9, i32 noundef 0, ptr noundef nonnull @.str.1753, i32 noundef %16, ptr noundef %18, ptr noundef nonnull @.str.282)
  br label %25

20:                                               ; preds = %12
  %21 = zext i16 %13 to i32
  %22 = add i32 %9, %21
  %23 = sub i32 %10, %21
  %24 = icmp eq i32 %23, 0
  br i1 %24, label %63, label %25

25:                                               ; preds = %.thread, %20
  %.1126 = phi i32 [ %10, %.thread ], [ %23, %20 ]
  %.1101125 = phi i32 [ %9, %.thread ], [ %22, %20 ]
  %26 = tail call fastcc zeroext i16 @elem_tlv(ptr noundef %0, ptr noundef %1, ptr noundef %2, i32 noundef 19, i32 noundef %.1101125, ptr noundef nonnull @.str.282, ptr noundef %5)
  %27 = zext i16 %26 to i32
  %28 = icmp eq i32 %.1126, %27
  br i1 %28, label %63, label %29

29:                                               ; preds = %25
  %30 = add i32 %.1101125, %27
  %31 = tail call fastcc zeroext i16 @elem_tv(ptr noundef %0, ptr noundef %1, ptr noundef %2, i32 noundef 74, i32 noundef %30, ptr noundef %5)
  %32 = zext i16 %31 to i32
  %33 = add nuw nsw i32 %32, %27
  %34 = icmp eq i32 %.1126, %33
  br i1 %34, label %63, label %35

35:                                               ; preds = %29
  %36 = sub i32 %.1126, %33
  %37 = add i32 %30, %32
  %38 = tail call fastcc zeroext i16 @elem_tlv(ptr noundef %0, ptr noundef %1, ptr noundef %2, i32 noundef 37, i32 noundef %37, ptr noundef nonnull @.str.282, ptr noundef %5)
  %39 = zext i16 %38 to i32
  %40 = icmp eq i32 %36, %39
  br i1 %40, label %63, label %41

41:                                               ; preds = %35
  %42 = sub i32 %36, %39
  %43 = add i32 %37, %39
  %44 = tail call fastcc zeroext i16 @elem_tlv(ptr noundef %0, ptr noundef %1, ptr noundef %2, i32 noundef 57, i32 noundef %43, ptr noundef nonnull @.str.282, ptr noundef %5)
  %45 = zext i16 %44 to i32
  %46 = icmp eq i32 %42, %45
  br i1 %46, label %63, label %47

47:                                               ; preds = %41
  %48 = sub i32 %42, %45
  %49 = add i32 %43, %45
  %50 = tail call fastcc zeroext i16 @elem_tlv(ptr noundef %0, ptr noundef %1, ptr noundef %2, i32 noundef 88, i32 noundef %49, ptr noundef nonnull @.str.282, ptr noundef %5)
  %51 = zext i16 %50 to i32
  %52 = icmp eq i32 %48, %51
  br i1 %52, label %63, label %53

53:                                               ; preds = %47
  %54 = sub i32 %48, %51
  %55 = add i32 %49, %51
  %56 = tail call fastcc zeroext i16 @elem_tlv(ptr noundef %0, ptr noundef %1, ptr noundef %2, i32 noundef 89, i32 noundef %55, ptr noundef nonnull @.str.282, ptr noundef %5)
  %57 = zext i16 %56 to i32
  %58 = icmp eq i32 %54, %57
  br i1 %58, label %63, label %59

59:                                               ; preds = %53
  %60 = sub i32 %54, %57
  %61 = add i32 %55, %57
  %62 = tail call ptr @proto_tree_add_expert(ptr noundef %2, ptr noundef %1, ptr noundef nonnull @ei_ansi_a_extraneous_data, ptr noundef %0, i32 noundef %61, i32 noundef %60)
  br label %63

63:                                               ; preds = %53, %47, %41, %35, %29, %25, %20, %6, %59
  ret void
}